target datalayout = "e-m:e-p270:32:32-p271:32:32-p272:64:64-i64:64-i128:128-f80:128-n8:16:32:64-S128"
target triple = "x86_64-pc-linux-gnu"

%"struct.duckdb_zstd::ZSTD_frameParameters" = type { i32, i32, i32 }
%"struct.duckdb_zstd::ZSTD_compressionParameters" = type { i32, i32, i32, i32, i32, i32, i32 }
%"struct.duckdb_zstd::ZSTD_parameters" = type { %"struct.duckdb_zstd::ZSTD_compressionParameters", %"struct.duckdb_zstd::ZSTD_frameParameters" }

; Function Attrs: mustprogress uwtable
define internal void @_ZN11duckdb_zstdL23ZSTD_getParams_internalEiymNS_17ZSTD_cParamMode_eE(ptr dead_on_unwind noalias writable sret(%"struct.duckdb_zstd::ZSTD_parameters") align 4 %0, i32 noundef %1, i64 noundef %2, i64 noundef %3, i32 noundef %4) #2 {
  %6 = alloca i32, align 4
  %7 = alloca i64, align 8
  %8 = alloca i64, align 8
  %9 = alloca i32, align 4
  %10 = alloca %"struct.duckdb_zstd::ZSTD_compressionParameters", align 4
  store i32 %1, ptr %6, align 4, !tbaa !79
  store i64 %2, ptr %7, align 8, !tbaa !162
  store i64 %3, ptr %8, align 8, !tbaa !3
  store i32 %4, ptr %9, align 4, !tbaa !178
  call void @llvm.lifetime.start.p0(i64 28, ptr %10) #16
  %11 = load i32, ptr %6, align 4, !tbaa !79
  %12 = load i64, ptr %7, align 8, !tbaa !162
  %13 = load i64, ptr %8, align 8, !tbaa !3
  %14 = load i32, ptr %9, align 4, !tbaa !178
  call void @_ZN11duckdb_zstdL24ZSTD_getCParams_internalEiymNS_17ZSTD_cParamMode_eE(ptr dead_on_unwind writable sret(%"struct.duckdb_zstd::ZSTD_compressionParameters") align 4 %10, i32 noundef %11, i64 noundef %12, i64 noundef %13, i32 noundef %14)
  br label %15

15:                                               ; preds = %5
  br label %16

16:                                               ; preds = %15
  br label %17

17:                                               ; preds = %16
  call void @llvm.memset.p0.i64(ptr align 4 %0, i8 0, i64 40, i1 false)
  %18 = getelementptr inbounds nuw %"struct.duckdb_zstd::ZSTD_parameters", ptr %0, i32 0, i32 0
  call void @llvm.memcpy.p0.p0.i64(ptr align 4 %18, ptr align 4 %10, i64 28, i1 false), !tbaa.struct !100
  %19 = getelementptr inbounds nuw %"struct.duckdb_zstd::ZSTD_parameters", ptr %0, i32 0, i32 1
  %20 = getelementptr inbounds nuw %"struct.duckdb_zstd::ZSTD_frameParameters", ptr %19, i32 0, i32 0
  store i32 1, ptr %20, align 4, !tbaa !314
  call void @llvm.lifetime.end.p0(i64 28, ptr %10) #16
  ret void
}

; Function Attrs: mustprogress uwtable
define void @_ZN11duckdb_zstd14ZSTD_getParamsEiym(ptr dead_on_unwind noalias writable sret(%"struct.duckdb_zstd::ZSTD_parameters") align 4 %0, i32 noundef %1, i64 noundef %2, i64 noundef %3) #2 {
  %5 = alloca i32, align 4
  %6 = alloca i64, align 8
  %7 = alloca i64, align 8
  store i32 %1, ptr %5, align 4, !tbaa !79
  store i64 %2, ptr %6, align 8, !tbaa !162
  store i64 %3, ptr %7, align 8, !tbaa !3
  %8 = load i64, ptr %6, align 8, !tbaa !162
  %9 = icmp eq i64 %8, 0
  br i1 %9, label %10, label %11

10:                                               ; preds = %4
  store i64 -1, ptr %6, align 8, !tbaa !162
  br label %11

11:                                               ; preds = %10, %4
  %12 = load i32, ptr %5, align 4, !tbaa !79
  %13 = load i64, ptr %6, align 8, !tbaa !162
  %14 = load i64, ptr %7, align 8, !tbaa !3
  call void @_ZN11duckdb_zstdL23ZSTD_getParams_internalEiymNS_17ZSTD_cParamMode_eE(ptr dead_on_unwind writable sret(%"struct.duckdb_zstd::ZSTD_parameters") align 4 %0, i32 noundef %12, i64 noundef %13, i64 noundef %14, i32 noundef 3)
  ret void
}